target datalayout = "e-m:e-p270:32:32-p271:32:32-p272:64:64-i64:64-i128:128-f80:128-n8:16:32:64-S128"
target triple = "x86_64-pc-linux-gnu"

%"class.llvm::StringRef" = type { ptr, i64 }
%"class.llvm::Twine" = type <{ %"union.llvm::Twine::Child", %"union.llvm::Twine::Child", i8, i8, [6 x i8] }>
%"union.llvm::Twine::Child" = type { %struct.anon }
%struct.anon = type { ptr, i64 }
%"class.llvm::Value" = type { i8, i8, i16, i32, ptr, ptr }

@.str.18 = private unnamed_addr constant [1 x i8] zeroinitializer, align 1

; Function Attrs: mustprogress nounwind uwtable
define linkonce_odr hidden void @_ZN4llvm5TwineC2EPKc(ptr noundef nonnull align 8 dereferenceable(34) %0, ptr noundef %1) unnamed_addr #1 comdat align 2 {
  %3 = alloca ptr, align 8
  %4 = alloca ptr, align 8
  store ptr %0, ptr %3, align 8
  store ptr %1, ptr %4, align 8
  %5 = load ptr, ptr %3, align 8
  %6 = getelementptr inbounds nuw %"class.llvm::Twine", ptr %5, i32 0, i32 2
  store i8 1, ptr %6, align 8
  %7 = getelementptr inbounds nuw %"class.llvm::Twine", ptr %5, i32 0, i32 3
  store i8 1, ptr %7, align 1
  %8 = load ptr, ptr %4, align 8
  %9 = getelementptr inbounds i8, ptr %8, i64 0
  %10 = load i8, ptr %9, align 1
  %11 = sext i8 %10 to i32
  %12 = icmp ne i32 %11, 0
  br i1 %12, label %13, label %17

13:                                               ; preds = %2
  %14 = load ptr, ptr %4, align 8
  %15 = getelementptr inbounds nuw %"class.llvm::Twine", ptr %5, i32 0, i32 0
  store ptr %14, ptr %15, align 8
  %16 = getelementptr inbounds nuw %"class.llvm::Twine", ptr %5, i32 0, i32 2
  store i8 3, ptr %16, align 8
  br label %19

17:                                               ; preds = %2
  %18 = getelementptr inbounds nuw %"class.llvm::Twine", ptr %5, i32 0, i32 2
  store i8 1, ptr %18, align 8
  br label %19

19:                                               ; preds = %17, %13
  ret void
}

; Function Attrs: mustprogress nounwind uwtable
define linkonce_odr hidden noundef signext i8 @_ZNK4llvm9StringRefixEm(ptr noundef nonnull align 8 dereferenceable(16) %0, i64 noundef %1) #1 comdat align 2 {
  %3 = alloca ptr, align 8
  %4 = alloca i64, align 8
  store ptr %0, ptr %3, align 8
  store i64 %1, ptr %4, align 8
  %5 = load ptr, ptr %3, align 8
  %6 = getelementptr inbounds nuw %"class.llvm::StringRef", ptr %5, i32 0, i32 0
  %7 = load ptr, ptr %6, align 8
  %8 = load i64, ptr %4, align 8
  %9 = getelementptr inbounds i8, ptr %7, i64 %8
  %10 = load i8, ptr %9, align 1
  ret i8 %10
}

; Function Attrs: mustprogress nounwind uwtable
define linkonce_odr noundef nonnull align 8 dereferenceable(8) ptr @_ZSt3minImERKT_S2_S2_(ptr noundef nonnull align 8 dereferenceable(8) %0, ptr noundef nonnull align 8 dereferenceable(8) %1) #1 comdat {
  %3 = alloca ptr, align 8
  %4 = alloca ptr, align 8
  %5 = alloca ptr, align 8
  store ptr %0, ptr %4, align 8
  store ptr %1, ptr %5, align 8
  %6 = load ptr, ptr %5, align 8
  %7 = load i64, ptr %6, align 8
  %8 = load ptr, ptr %4, align 8
  %9 = load i64, ptr %8, align 8
  %10 = icmp ult i64 %7, %9
  br i1 %10, label %11, label %13

11:                                               ; preds = %2
  %12 = load ptr, ptr %5, align 8
  store ptr %12, ptr %3, align 8
  br label %15

13:                                               ; preds = %2
  %14 = load ptr, ptr %4, align 8
  store ptr %14, ptr %3, align 8
  br label %15

15:                                               ; preds = %13, %11
  %16 = load ptr, ptr %3, align 8
  ret ptr %16
}

; Function Attrs: mustprogress nounwind uwtable
define linkonce_odr hidden noundef i64 @_ZNK4llvm9StringRef4sizeEv(ptr noundef nonnull align 8 dereferenceable(16) %0) #1 comdat align 2 {
  %2 = alloca ptr, align 8
  store ptr %0, ptr %2, align 8
  %3 = load ptr, ptr %2, align 8
  %4 = getelementptr inbounds nuw %"class.llvm::StringRef", ptr %3, i32 0, i32 1
  %5 = load i64, ptr %4, align 8
  ret i64 %5
}

; Function Attrs: mustprogress nounwind uwtable
define linkonce_odr hidden void @_ZN4llvm9StringRefC2Ev(ptr noundef nonnull align 8 dereferenceable(16) %0) unnamed_addr #1 comdat align 2 {
  %2 = alloca ptr, align 8
  store ptr %0, ptr %2, align 8
  %3 = load ptr, ptr %2, align 8
  %4 = getelementptr inbounds nuw %"class.llvm::StringRef", ptr %3, i32 0, i32 0
  store ptr null, ptr %4, align 8
  %5 = getelementptr inbounds nuw %"class.llvm::StringRef", ptr %3, i32 0, i32 1
  store i64 0, ptr %5, align 8
  ret void
}

; Function Attrs: mustprogress nounwind uwtable
define linkonce_odr hidden noundef ptr @_ZNK4llvm5Value7getTypeEv(ptr noundef nonnull align 8 dereferenceable(24) %0) #1 comdat align 2 {
  %2 = alloca ptr, align 8
  store ptr %0, ptr %2, align 8
  %3 = load ptr, ptr %2, align 8
  %4 = getelementptr inbounds nuw %"class.llvm::Value", ptr %3, i32 0, i32 4
  %5 = load ptr, ptr %4, align 8
  ret ptr %5
}

; Function Attrs: mustprogress nounwind uwtable
define internal noundef ptr @_ZL21optimizeMemCmpVarSizePN4llvm8CallInstEPNS_5ValueES3_S3_bRNS_13IRBuilderBaseERKNS_10DataLayoutE(ptr noundef %0, ptr noundef %1, ptr noundef %2, ptr noundef %3, i1 noundef zeroext %4, ptr noundef nonnull align 8 dereferenceable(128) %5, ptr noundef nonnull align 8 dereferenceable(512) %6) #1 {
  %8 = alloca ptr, align 8
  %9 = alloca ptr, align 8
  %10 = alloca ptr, align 8
  %11 = alloca ptr, align 8
  %12 = alloca ptr, align 8
  %13 = alloca i8, align 1
  %14 = alloca ptr, align 8
  %15 = alloca ptr, align 8
  %16 = alloca %"class.llvm::StringRef", align 8
  %17 = alloca %"class.llvm::StringRef", align 8
  %18 = alloca i64, align 8
  %19 = alloca ptr, align 8
  %20 = alloca i64, align 8
  %21 = alloca i64, align 8
  %22 = alloca i64, align 8
  %23 = alloca i32, align 4
  %24 = alloca ptr, align 8
  %25 = alloca ptr, align 8
  %26 = alloca %"class.llvm::Twine", align 8
  %27 = alloca ptr, align 8
  %28 = alloca %"class.llvm::Twine", align 8
  store ptr %0, ptr %9, align 8
  store ptr %1, ptr %10, align 8
  store ptr %2, ptr %11, align 8
  store ptr %3, ptr %12, align 8
  %29 = zext i1 %4 to i8
  store i8 %29, ptr %13, align 1
  store ptr %5, ptr %14, align 8
  store ptr %6, ptr %15, align 8
  %30 = load ptr, ptr %10, align 8
  %31 = load ptr, ptr %11, align 8
  %32 = icmp eq ptr %30, %31
  br i1 %32, label %33, label %37

33:                                               ; preds = %7
  %34 = load ptr, ptr %9, align 8
  %35 = call noundef ptr @_ZNK4llvm5Value7getTypeEv(ptr noundef nonnull align 8 dereferenceable(24) %34)
  %36 = call noundef ptr @_ZN4llvm8Constant12getNullValueEPNS_4TypeE(ptr noundef %35)
  store ptr %36, ptr %8, align 8
  br label %111

37:                                               ; preds = %7
  call void @_ZN4llvm9StringRefC2Ev(ptr noundef nonnull align 8 dereferenceable(16) %16) #2
  call void @_ZN4llvm9StringRefC2Ev(ptr noundef nonnull align 8 dereferenceable(16) %17) #2
  %38 = load ptr, ptr %10, align 8
  %39 = call noundef zeroext i1 @_ZN4llvm21getConstantStringInfoEPKNS_5ValueERNS_9StringRefEb(ptr noundef %38, ptr noundef nonnull align 8 dereferenceable(16) %16, i1 noundef zeroext false)
  br i1 %39, label %40, label %43

40:                                               ; preds = %37
  %41 = load ptr, ptr %11, align 8
  %42 = call noundef zeroext i1 @_ZN4llvm21getConstantStringInfoEPKNS_5ValueERNS_9StringRefEb(ptr noundef %41, ptr noundef nonnull align 8 dereferenceable(16) %17, i1 noundef zeroext false)
  br i1 %42, label %44, label %43

43:                                               ; preds = %40, %37
  store ptr null, ptr %8, align 8
  br label %111

44:                                               ; preds = %40
  store i64 0, ptr %18, align 8
  %45 = load ptr, ptr %9, align 8
  %46 = call noundef ptr @_ZNK4llvm5Value7getTypeEv(ptr noundef nonnull align 8 dereferenceable(24) %45)
  %47 = call noundef ptr @_ZN4llvm11ConstantInt3getEPNS_4TypeEmb(ptr noundef %46, i64 noundef 0, i1 noundef zeroext false)
  store ptr %47, ptr %19, align 8
  %48 = call noundef i64 @_ZNK4llvm9StringRef4sizeEv(ptr noundef nonnull align 8 dereferenceable(16) %16)
  store i64 %48, ptr %21, align 8
  %49 = call noundef i64 @_ZNK4llvm9StringRef4sizeEv(ptr noundef nonnull align 8 dereferenceable(16) %17)
  store i64 %49, ptr %22, align 8
  %50 = call noundef nonnull align 8 dereferenceable(8) ptr @_ZSt3minImERKT_S2_S2_(ptr noundef nonnull align 8 dereferenceable(8) %21, ptr noundef nonnull align 8 dereferenceable(8) %22)
  %51 = load i64, ptr %50, align 8
  store i64 %51, ptr %20, align 8
  br label %52

52:                                               ; preds = %81, %44
  %53 = load i64, ptr %18, align 8
  %54 = load i64, ptr %20, align 8
  %55 = icmp eq i64 %53, %54
  br i1 %55, label %69, label %56

56:                                               ; preds = %52
  %57 = load i8, ptr %13, align 1
  %58 = trunc i8 %57 to i1
  br i1 %58, label %59, label %71

59:                                               ; preds = %56
  %60 = load i64, ptr %18, align 8
  %61 = call noundef signext i8 @_ZNK4llvm9StringRefixEm(ptr noundef nonnull align 8 dereferenceable(16) %16, i64 noundef %60)
  %62 = sext i8 %61 to i32
  %63 = icmp eq i32 %62, 0
  br i1 %63, label %64, label %71

64:                                               ; preds = %59
  %65 = load i64, ptr %18, align 8
  %66 = call noundef signext i8 @_ZNK4llvm9StringRefixEm(ptr noundef nonnull align 8 dereferenceable(16) %17, i64 noundef %65)
  %67 = sext i8 %66 to i32
  %68 = icmp eq i32 %67, 0
  br i1 %68, label %69, label %71

69:                                               ; preds = %64, %52
  %70 = load ptr, ptr %19, align 8
  store ptr %70, ptr %8, align 8
  br label %111

71:                                               ; preds = %64, %59, %56
  %72 = load i64, ptr %18, align 8
  %73 = call noundef signext i8 @_ZNK4llvm9StringRefixEm(ptr noundef nonnull align 8 dereferenceable(16) %16, i64 noundef %72)
  %74 = sext i8 %73 to i32
  %75 = load i64, ptr %18, align 8
  %76 = call noundef signext i8 @_ZNK4llvm9StringRefixEm(ptr noundef nonnull align 8 dereferenceable(16) %17, i64 noundef %75)
  %77 = sext i8 %76 to i32
  %78 = icmp ne i32 %74, %77
  br i1 %78, label %79, label %80

79:                                               ; preds = %71
  br label %84

80:                                               ; preds = %71
  br label %81

81:                                               ; preds = %80
  %82 = load i64, ptr %18, align 8
  %83 = add i64 %82, 1
  store i64 %83, ptr %18, align 8
  br label %52, !llvm.loop !4

84:                                               ; preds = %79
  %85 = load i64, ptr %18, align 8
  %86 = call noundef signext i8 @_ZNK4llvm9StringRefixEm(ptr noundef nonnull align 8 dereferenceable(16) %16, i64 noundef %85)
  %87 = zext i8 %86 to i32
  %88 = load i64, ptr %18, align 8
  %89 = call noundef signext i8 @_ZNK4llvm9StringRefixEm(ptr noundef nonnull align 8 dereferenceable(16) %17, i64 noundef %88)
  %90 = zext i8 %89 to i32
  %91 = icmp slt i32 %87, %90
  %92 = select i1 %91, i32 -1, i32 1
  store i32 %92, ptr %23, align 4
  %93 = load ptr, ptr %12, align 8
  %94 = call noundef ptr @_ZNK4llvm5Value7getTypeEv(ptr noundef nonnull align 8 dereferenceable(24) %93)
  %95 = load i64, ptr %18, align 8
  %96 = call noundef ptr @_ZN4llvm11ConstantInt3getEPNS_4TypeEmb(ptr noundef %94, i64 noundef %95, i1 noundef zeroext false)
  store ptr %96, ptr %24, align 8
  %97 = load ptr, ptr %14, align 8
  %98 = load ptr, ptr %12, align 8
  %99 = load ptr, ptr %24, align 8
  call void @_ZN4llvm5TwineC2EPKc(ptr noundef nonnull align 8 dereferenceable(34) %26, ptr noundef @.str.18)
  %100 = call noundef ptr @_ZN4llvm13IRBuilderBase10CreateICmpENS_7CmpInst9PredicateEPNS_5ValueES4_RKNS_5TwineE(ptr noundef nonnull align 8 dereferenceable(128) %97, i32 noundef 37, ptr noundef %98, ptr noundef %99, ptr noundef nonnull align 8 dereferenceable(34) %26)
  store ptr %100, ptr %25, align 8
  %101 = load ptr, ptr %9, align 8
  %102 = call noundef ptr @_ZNK4llvm5Value7getTypeEv(ptr noundef nonnull align 8 dereferenceable(24) %101)
  %103 = load i32, ptr %23, align 4
  %104 = sext i32 %103 to i64
  %105 = call noundef ptr @_ZN4llvm11ConstantInt3getEPNS_4TypeEmb(ptr noundef %102, i64 noundef %104, i1 noundef zeroext false)
  store ptr %105, ptr %27, align 8
  %106 = load ptr, ptr %14, align 8
  %107 = load ptr, ptr %25, align 8
  %108 = load ptr, ptr %19, align 8
  %109 = load ptr, ptr %27, align 8
  call void @_ZN4llvm5TwineC2EPKc(ptr noundef nonnull align 8 dereferenceable(34) %28, ptr noundef @.str.18)
  %110 = call noundef ptr @_ZN4llvm13IRBuilderBase12CreateSelectEPNS_5ValueES2_S2_RKNS_5TwineEPNS_11InstructionE(ptr noundef nonnull align 8 dereferenceable(128) %106, ptr noundef %107, ptr noundef %108, ptr noundef %109, ptr noundef nonnull align 8 dereferenceable(34) %28, ptr noundef null)
  store ptr %110, ptr %8, align 8
  br label %111

111:                                              ; preds = %84, %69, %43, %33
  %112 = load ptr, ptr %8, align 8
  ret ptr %112
}