; Function Attrs: mustprogress nounwind uwtable
define internal fastcc noundef ptr @_ZL21optimizeMemCmpVarSizePN4llvm8CallInstEPNS_5ValueES3_S3_bRNS_13IRBuilderBaseERKNS_10DataLayoutE(ptr nocapture noundef readonly %0, ptr noundef %1, ptr noundef %2, ptr noundef %3, i1 noundef zeroext %4, ptr noundef nonnull align 8 dereferenceable(128) %5) unnamed_addr #0 {
  %7 = alloca %"class.llvm::StringRef", align 8
  %8 = alloca %"class.llvm::StringRef", align 8
  %9 = alloca %"class.llvm::Twine", align 8
  %10 = alloca %"class.llvm::Twine", align 8
  %11 = icmp eq ptr %1, %2
  br i1 %11, label %12, label %16

12:                                               ; preds = %6
  %13 = getelementptr inbounds nuw i8, ptr %0, i64 8
  %14 = load ptr, ptr %13, align 8
  %15 = tail call noundef ptr @_ZN4llvm8Constant12getNullValueEPNS_4TypeE(ptr noundef %14) #24
  br label %.loopexit

16:                                               ; preds = %6
  call void @llvm.memset.p0.i64(ptr noundef nonnull align 8 dereferenceable(16) %7, i8 0, i64 16, i1 false)
  call void @llvm.memset.p0.i64(ptr noundef nonnull align 8 dereferenceable(16) %8, i8 0, i64 16, i1 false)
  %17 = call noundef zeroext i1 @_ZN4llvm21getConstantStringInfoEPKNS_5ValueERNS_9StringRefEb(ptr noundef %1, ptr noundef nonnull align 8 dereferenceable(16) %7, i1 noundef zeroext false) #24
  br i1 %17, label %18, label %.loopexit

18:                                               ; preds = %16
  %19 = call noundef zeroext i1 @_ZN4llvm21getConstantStringInfoEPKNS_5ValueERNS_9StringRefEb(ptr noundef %2, ptr noundef nonnull align 8 dereferenceable(16) %8, i1 noundef zeroext false) #24
  br i1 %19, label %20, label %.loopexit

20:                                               ; preds = %18
  %21 = getelementptr inbounds nuw i8, ptr %0, i64 8
  %22 = load ptr, ptr %21, align 8
  %23 = call noundef ptr @_ZN4llvm11ConstantInt3getEPNS_4TypeEmb(ptr noundef %22, i64 noundef 0, i1 noundef zeroext false) #24
  %24 = getelementptr inbounds nuw i8, ptr %7, i64 8
  %25 = load i64, ptr %24, align 8
  %26 = getelementptr inbounds nuw i8, ptr %8, i64 8
  %27 = load i64, ptr %26, align 8
  %.sroa.speculated = call i64 @llvm.umin.i64(i64 %27, i64 %25)
  %28 = icmp eq i64 %.sroa.speculated, 0
  br i1 %28, label %.loopexit, label %.lr.ph

.lr.ph:                                           ; preds = %20
  %29 = load ptr, ptr %7, align 8
  %30 = load ptr, ptr %8, align 8
  br i1 %4, label %.lr.ph.split.us, label %.lr.ph.split

.lr.ph.split.us:                                  ; preds = %.lr.ph, %37
  %.0286.us = phi i64 [ %38, %37 ], [ 0, %.lr.ph ]
  %31 = getelementptr inbounds i8, ptr %29, i64 %.0286.us
  %32 = load i8, ptr %31, align 1
  %33 = icmp eq i8 %32, 0
  %34 = getelementptr inbounds i8, ptr %30, i64 %.0286.us
  %35 = load i8, ptr %34, align 1
  %36 = icmp eq i8 %35, 0
  %or.cond = select i1 %33, i1 %36, i1 false
  br i1 %or.cond, label %.loopexit, label %.lr.ph.split.us._crit_edge

.lr.ph.split.us._crit_edge:                       ; preds = %.lr.ph.split.us
  %.not.us = icmp eq i8 %32, %35
  br i1 %.not.us, label %37, label %.split.us

37:                                               ; preds = %.lr.ph.split.us._crit_edge
  %38 = add nuw i64 %.0286.us, 1
  %39 = icmp eq i64 %38, %.sroa.speculated
  br i1 %39, label %.loopexit, label %.lr.ph.split.us, !llvm.loop !5

.lr.ph.split:                                     ; preds = %.lr.ph, %44
  %.0286 = phi i64 [ %45, %44 ], [ 0, %.lr.ph ]
  %40 = getelementptr inbounds i8, ptr %29, i64 %.0286
  %41 = load i8, ptr %40, align 1
  %42 = getelementptr inbounds i8, ptr %30, i64 %.0286
  %43 = load i8, ptr %42, align 1
  %.not = icmp eq i8 %41, %43
  br i1 %.not, label %44, label %.split.us

44:                                               ; preds = %.lr.ph.split
  %45 = add nuw i64 %.0286, 1
  %46 = icmp eq i64 %45, %.sroa.speculated
  br i1 %46, label %.loopexit, label %.lr.ph.split, !llvm.loop !5

.split.us:                                        ; preds = %.lr.ph.split, %.lr.ph.split.us._crit_edge
  %.us-phi = phi i8 [ %32, %.lr.ph.split.us._crit_edge ], [ %41, %.lr.ph.split ]
  %.us-phi8 = phi i8 [ %35, %.lr.ph.split.us._crit_edge ], [ %43, %.lr.ph.split ]
  %.us-phi9 = phi i64 [ %.0286.us, %.lr.ph.split.us._crit_edge ], [ %.0286, %.lr.ph.split ]
  %47 = icmp ult i8 %.us-phi, %.us-phi8
  %48 = getelementptr inbounds nuw i8, ptr %3, i64 8
  %49 = load ptr, ptr %48, align 8
  %50 = call noundef ptr @_ZN4llvm11ConstantInt3getEPNS_4TypeEmb(ptr noundef %49, i64 noundef %.us-phi9, i1 noundef zeroext false) #24
  %51 = getelementptr inbounds nuw i8, ptr %9, i64 32
  store i16 257, ptr %51, align 8
  %52 = call noundef ptr @_ZN4llvm13IRBuilderBase10CreateICmpENS_7CmpInst9PredicateEPNS_5ValueES4_RKNS_5TwineE(ptr noundef nonnull align 8 dereferenceable(128) %5, i32 noundef 37, ptr noundef nonnull %3, ptr noundef %50, ptr noundef nonnull align 8 dereferenceable(34) %9)
  %53 = load ptr, ptr %21, align 8
  %54 = select i1 %47, i64 -1, i64 1
  %55 = call noundef ptr @_ZN4llvm11ConstantInt3getEPNS_4TypeEmb(ptr noundef %53, i64 noundef %54, i1 noundef zeroext false) #24
  %56 = getelementptr inbounds nuw i8, ptr %10, i64 32
  store i16 257, ptr %56, align 8
  %57 = call noundef ptr @_ZN4llvm13IRBuilderBase12CreateSelectEPNS_5ValueES2_S2_RKNS_5TwineEPNS_11InstructionE(ptr noundef nonnull align 8 dereferenceable(128) %5, ptr noundef %52, ptr noundef %23, ptr noundef %55, ptr noundef nonnull align 8 dereferenceable(34) %10, ptr noundef null) #24
  br label %.loopexit

.loopexit:                                        ; preds = %44, %37, %.lr.ph.split.us, %20, %16, %18, %.split.us, %12
  %.0 = phi ptr [ %15, %12 ], [ %57, %.split.us ], [ null, %18 ], [ null, %16 ], [ %23, %20 ], [ %23, %.lr.ph.split.us ], [ %23, %37 ], [ %23, %44 ]
  ret ptr %.0
}